target datalayout = "e-m:e-p270:32:32-p271:32:32-p272:64:64-i64:64-i128:128-f80:128-n8:16:32:64-S128"
target triple = "x86_64-pc-linux-gnu"

%struct.Agsym_s = type { %struct.dtlink_s_, ptr, ptr, i32, i8, i8, i8 }
%struct.dtlink_s_ = type { ptr, %union.anon.0 }
%union.anon.0 = type { ptr }
%struct.dt_s_ = type { ptr, ptr, %struct.Dtdata_t, ptr, i32, ptr, ptr, ptr }
%struct.Dtdata_t = type { i32, ptr, %union.anon, i32, i32, i32 }
%union.anon = type { ptr }

@stderr = external global ptr, align 8
@.str.5 = private unnamed_addr constant [58 x i8] c"integer overflow when trying to allocate %zu * %zu bytes\0A\00", align 1
@.str.6 = private unnamed_addr constant [49 x i8] c"out of memory when trying to allocate %zu bytes\0A\00", align 1

; Function Attrs: inlinehint nounwind uwtable
define internal ptr @gv_calloc(i64 noundef %0, i64 noundef %1) #4 {
  %3 = alloca i64, align 8
  %4 = alloca i64, align 8
  %5 = alloca ptr, align 8
  store i64 %0, ptr %3, align 8, !tbaa !67
  store i64 %1, ptr %4, align 8, !tbaa !67
  %6 = load i64, ptr %3, align 8, !tbaa !67
  %7 = icmp ugt i64 %6, 0
  br i1 %7, label %8, label %18

8:                                                ; preds = %2
  %9 = load i64, ptr %3, align 8, !tbaa !67
  %10 = udiv i64 -1, %9
  %11 = load i64, ptr %4, align 8, !tbaa !67
  %12 = icmp ult i64 %10, %11
  br i1 %12, label %13, label %18

13:                                               ; preds = %8
  %14 = load ptr, ptr @stderr, align 8, !tbaa !63
  %15 = load i64, ptr %3, align 8, !tbaa !67
  %16 = load i64, ptr %4, align 8, !tbaa !67
  %17 = call i32 (ptr, ptr, ...) @fprintf(ptr noundef %14, ptr noundef @.str.5, i64 noundef %15, i64 noundef %16) #11
  call void @graphviz_exit(i32 noundef 1) #14
  unreachable

18:                                               ; preds = %8, %2
  call void @llvm.lifetime.start.p0(i64 8, ptr %5) #11
  %19 = load i64, ptr %3, align 8, !tbaa !67
  %20 = load i64, ptr %4, align 8, !tbaa !67
  %21 = call noalias ptr @calloc(i64 noundef %19, i64 noundef %20) #15
  store ptr %21, ptr %5, align 8, !tbaa !3
  %22 = load i64, ptr %3, align 8, !tbaa !67
  %23 = icmp ugt i64 %22, 0
  br i1 %23, label %24, label %36

24:                                               ; preds = %18
  %25 = load i64, ptr %4, align 8, !tbaa !67
  %26 = icmp ugt i64 %25, 0
  br i1 %26, label %27, label %36

27:                                               ; preds = %24
  %28 = load ptr, ptr %5, align 8, !tbaa !3
  %29 = icmp eq ptr %28, null
  br i1 %29, label %30, label %36

30:                                               ; preds = %27
  %31 = load ptr, ptr @stderr, align 8, !tbaa !63
  %32 = load i64, ptr %3, align 8, !tbaa !67
  %33 = load i64, ptr %4, align 8, !tbaa !67
  %34 = mul i64 %32, %33
  %35 = call i32 (ptr, ptr, ...) @fprintf(ptr noundef %31, ptr noundef @.str.6, i64 noundef %34) #11
  call void @graphviz_exit(i32 noundef 1) #14
  unreachable

36:                                               ; preds = %27, %24, %18
  %37 = load ptr, ptr %5, align 8, !tbaa !3
  call void @llvm.lifetime.end.p0(i64 8, ptr %5) #11
  ret ptr %37
}

; Function Attrs: inlinehint nounwind uwtable
define internal ptr @gv_alloc(i64 noundef %0) #4 {
  %2 = alloca i64, align 8
  store i64 %0, ptr %2, align 8, !tbaa !67
  %3 = load i64, ptr %2, align 8, !tbaa !67
  %4 = call ptr @gv_calloc(i64 noundef 1, i64 noundef %3)
  ret ptr %4
}

; Function Attrs: nounwind uwtable
define internal ptr @agnewsym(ptr noundef %0, ptr noundef %1, ptr noundef %2, i1 noundef zeroext %3, i32 noundef %4, i32 noundef %5) #0 {
  %7 = alloca ptr, align 8
  %8 = alloca ptr, align 8
  %9 = alloca ptr, align 8
  %10 = alloca i8, align 1
  %11 = alloca i32, align 4
  %12 = alloca i32, align 4
  %13 = alloca ptr, align 8
  store ptr %0, ptr %7, align 8, !tbaa !9
  store ptr %1, ptr %8, align 8, !tbaa !31
  store ptr %2, ptr %9, align 8, !tbaa !31
  %14 = zext i1 %3 to i8
  store i8 %14, ptr %10, align 1, !tbaa !18
  store i32 %4, ptr %11, align 4, !tbaa !45
  store i32 %5, ptr %12, align 4, !tbaa !45
  call void @llvm.lifetime.start.p0(i64 8, ptr %13) #11
  %15 = call ptr @gv_alloc(i64 noundef 40)
  store ptr %15, ptr %13, align 8, !tbaa !7
  %16 = load i32, ptr %12, align 4, !tbaa !45
  %17 = trunc i32 %16 to i8
  %18 = load ptr, ptr %13, align 8, !tbaa !7
  %19 = getelementptr inbounds nuw %struct.Agsym_s, ptr %18, i32 0, i32 4
  store i8 %17, ptr %19, align 4, !tbaa !66
  %20 = load ptr, ptr %7, align 8, !tbaa !9
  %21 = load ptr, ptr %8, align 8, !tbaa !31
  %22 = call ptr @agstrdup(ptr noundef %20, ptr noundef %21)
  %23 = load ptr, ptr %13, align 8, !tbaa !7
  %24 = getelementptr inbounds nuw %struct.Agsym_s, ptr %23, i32 0, i32 1
  store ptr %22, ptr %24, align 8, !tbaa !11
  %25 = load i8, ptr %10, align 1, !tbaa !18, !range !22, !noundef !23
  %26 = trunc i8 %25 to i1
  br i1 %26, label %27, label %31

27:                                               ; preds = %6
  %28 = load ptr, ptr %7, align 8, !tbaa !9
  %29 = load ptr, ptr %9, align 8, !tbaa !31
  %30 = call ptr @agstrdup_html(ptr noundef %28, ptr noundef %29)
  br label %35

31:                                               ; preds = %6
  %32 = load ptr, ptr %7, align 8, !tbaa !9
  %33 = load ptr, ptr %9, align 8, !tbaa !31
  %34 = call ptr @agstrdup(ptr noundef %32, ptr noundef %33)
  br label %35

35:                                               ; preds = %31, %27
  %36 = phi ptr [ %30, %27 ], [ %34, %31 ]
  %37 = load ptr, ptr %13, align 8, !tbaa !7
  %38 = getelementptr inbounds nuw %struct.Agsym_s, ptr %37, i32 0, i32 2
  store ptr %36, ptr %38, align 8, !tbaa !17
  %39 = load i32, ptr %11, align 4, !tbaa !45
  %40 = load ptr, ptr %13, align 8, !tbaa !7
  %41 = getelementptr inbounds nuw %struct.Agsym_s, ptr %40, i32 0, i32 3
  store i32 %39, ptr %41, align 8, !tbaa !52
  %42 = load ptr, ptr %13, align 8, !tbaa !7
  call void @llvm.lifetime.end.p0(i64 8, ptr %13) #11
  ret ptr %42
}

; Function Attrs: nounwind uwtable
define internal void @agcopydict(ptr noundef %0, ptr noundef %1, ptr noundef %2, i32 noundef %3) #0 {
  %5 = alloca ptr, align 8
  %6 = alloca ptr, align 8
  %7 = alloca ptr, align 8
  %8 = alloca i32, align 4
  %9 = alloca ptr, align 8
  %10 = alloca ptr, align 8
  %11 = alloca i8, align 1
  store ptr %0, ptr %5, align 8, !tbaa !40
  store ptr %1, ptr %6, align 8, !tbaa !40
  store ptr %2, ptr %7, align 8, !tbaa !9
  store i32 %3, ptr %8, align 4, !tbaa !45
  call void @llvm.lifetime.start.p0(i64 8, ptr %9) #11
  call void @llvm.lifetime.start.p0(i64 8, ptr %10) #11
  %12 = load ptr, ptr %5, align 8, !tbaa !40
  %13 = getelementptr inbounds nuw %struct.dt_s_, ptr %12, i32 0, i32 0
  %14 = load ptr, ptr %13, align 8, !tbaa !41
  %15 = load ptr, ptr %5, align 8, !tbaa !40
  %16 = call ptr %14(ptr noundef %15, ptr noundef null, i32 noundef 128)
  store ptr %16, ptr %9, align 8, !tbaa !7
  br label %17

17:                                               ; preds = %57, %4
  %18 = load ptr, ptr %9, align 8, !tbaa !7
  %19 = icmp ne ptr %18, null
  br i1 %19, label %20, label %64

20:                                               ; preds = %17
  call void @llvm.lifetime.start.p0(i64 1, ptr %11) #11
  %21 = load ptr, ptr %9, align 8, !tbaa !7
  %22 = getelementptr inbounds nuw %struct.Agsym_s, ptr %21, i32 0, i32 2
  %23 = load ptr, ptr %22, align 8, !tbaa !17
  %24 = call i32 @aghtmlstr(ptr noundef %23)
  %25 = icmp ne i32 %24, 0
  %26 = zext i1 %25 to i8
  store i8 %26, ptr %11, align 1, !tbaa !18
  %27 = load ptr, ptr %7, align 8, !tbaa !9
  %28 = load ptr, ptr %9, align 8, !tbaa !7
  %29 = getelementptr inbounds nuw %struct.Agsym_s, ptr %28, i32 0, i32 1
  %30 = load ptr, ptr %29, align 8, !tbaa !11
  %31 = load ptr, ptr %9, align 8, !tbaa !7
  %32 = getelementptr inbounds nuw %struct.Agsym_s, ptr %31, i32 0, i32 2
  %33 = load ptr, ptr %32, align 8, !tbaa !17
  %34 = load i8, ptr %11, align 1, !tbaa !18, !range !22, !noundef !23
  %35 = trunc i8 %34 to i1
  %36 = load ptr, ptr %9, align 8, !tbaa !7
  %37 = getelementptr inbounds nuw %struct.Agsym_s, ptr %36, i32 0, i32 3
  %38 = load i32, ptr %37, align 8, !tbaa !52
  %39 = load i32, ptr %8, align 4, !tbaa !45
  %40 = call ptr @agnewsym(ptr noundef %27, ptr noundef %30, ptr noundef %33, i1 noundef zeroext %35, i32 noundef %38, i32 noundef %39)
  store ptr %40, ptr %10, align 8, !tbaa !7
  %41 = load ptr, ptr %9, align 8, !tbaa !7
  %42 = getelementptr inbounds nuw %struct.Agsym_s, ptr %41, i32 0, i32 6
  %43 = load i8, ptr %42, align 2, !tbaa !69
  %44 = load ptr, ptr %10, align 8, !tbaa !7
  %45 = getelementptr inbounds nuw %struct.Agsym_s, ptr %44, i32 0, i32 6
  store i8 %43, ptr %45, align 2, !tbaa !69
  %46 = load ptr, ptr %9, align 8, !tbaa !7
  %47 = getelementptr inbounds nuw %struct.Agsym_s, ptr %46, i32 0, i32 5
  %48 = load i8, ptr %47, align 1, !tbaa !70
  %49 = load ptr, ptr %10, align 8, !tbaa !7
  %50 = getelementptr inbounds nuw %struct.Agsym_s, ptr %49, i32 0, i32 5
  store i8 %48, ptr %50, align 1, !tbaa !70
  %51 = load ptr, ptr %6, align 8, !tbaa !40
  %52 = getelementptr inbounds nuw %struct.dt_s_, ptr %51, i32 0, i32 0
  %53 = load ptr, ptr %52, align 8, !tbaa !41
  %54 = load ptr, ptr %6, align 8, !tbaa !40
  %55 = load ptr, ptr %10, align 8, !tbaa !7
  %56 = call ptr %53(ptr noundef %54, ptr noundef %55, i32 noundef 1)
  call void @llvm.lifetime.end.p0(i64 1, ptr %11) #11
  br label %57

57:                                               ; preds = %20
  %58 = load ptr, ptr %5, align 8, !tbaa !40
  %59 = getelementptr inbounds nuw %struct.dt_s_, ptr %58, i32 0, i32 0
  %60 = load ptr, ptr %59, align 8, !tbaa !41
  %61 = load ptr, ptr %5, align 8, !tbaa !40
  %62 = load ptr, ptr %9, align 8, !tbaa !7
  %63 = call ptr %60(ptr noundef %61, ptr noundef %62, i32 noundef 8)
  store ptr %63, ptr %9, align 8, !tbaa !7
  br label %17, !llvm.loop !71

64:                                               ; preds = %17
  call void @llvm.lifetime.end.p0(i64 8, ptr %10) #11
  call void @llvm.lifetime.end.p0(i64 8, ptr %9) #11
  ret void
}