; Function Attrs: nounwind uwtable
define internal fastcc void @agcopydict(ptr noundef %0, ptr noundef %1, ptr noundef %2, i32 noundef range(i32 0, 3) %3) unnamed_addr #0 {
  %5 = load ptr, ptr %0, align 8, !tbaa !25
  %6 = tail call ptr %5(ptr noundef nonnull %0, ptr noundef null, i32 noundef 128) #12
  %.not20 = icmp eq ptr %6, null
  br i1 %.not20, label %._crit_edge, label %.lr.ph

.lr.ph:                                           ; preds = %4
  %7 = trunc nuw nsw i32 %3 to i8
  br label %8

8:                                                ; preds = %.lr.ph, %agnewsym.exit
  %.021 = phi ptr [ %6, %.lr.ph ], [ %41, %agnewsym.exit ]
  %9 = getelementptr inbounds nuw i8, ptr %.021, i64 24
  %10 = load ptr, ptr %9, align 8, !tbaa !14
  %11 = tail call i32 @aghtmlstr(ptr noundef %10) #12
  %12 = getelementptr inbounds nuw i8, ptr %.021, i64 16
  %13 = load ptr, ptr %12, align 8, !tbaa !8
  %14 = load ptr, ptr %9, align 8, !tbaa !14
  %15 = getelementptr inbounds nuw i8, ptr %.021, i64 32
  %16 = load i32, ptr %15, align 8, !tbaa !36
  %17 = tail call noalias dereferenceable_or_null(40) ptr @calloc(i64 noundef 1, i64 noundef 40) #14
  %18 = icmp eq ptr %17, null
  br i1 %18, label %19, label %gv_alloc.exit.i

19:                                               ; preds = %8
  %20 = load ptr, ptr @stderr, align 8, !tbaa !37
  %21 = tail call i32 (ptr, ptr, ...) @fprintf(ptr noundef %20, ptr noundef nonnull @.str.6, i64 noundef 40) #15
  tail call fastcc void @graphviz_exit() #16
  unreachable

gv_alloc.exit.i:                                  ; preds = %8
  %.not19 = icmp eq i32 %11, 0
  %22 = getelementptr inbounds nuw i8, ptr %17, i64 36
  store i8 %7, ptr %22, align 4, !tbaa !39
  %23 = tail call ptr @agstrdup(ptr noundef %2, ptr noundef %13) #12
  %24 = getelementptr inbounds nuw i8, ptr %17, i64 16
  store ptr %23, ptr %24, align 8, !tbaa !8
  br i1 %.not19, label %27, label %25

25:                                               ; preds = %gv_alloc.exit.i
  %26 = tail call ptr @agstrdup_html(ptr noundef %2, ptr noundef %14) #12
  br label %agnewsym.exit

27:                                               ; preds = %gv_alloc.exit.i
  %28 = tail call ptr @agstrdup(ptr noundef %2, ptr noundef %14) #12
  br label %agnewsym.exit

agnewsym.exit:                                    ; preds = %25, %27
  %29 = phi ptr [ %26, %25 ], [ %28, %27 ]
  %30 = getelementptr inbounds nuw i8, ptr %17, i64 24
  store ptr %29, ptr %30, align 8, !tbaa !14
  %31 = getelementptr inbounds nuw i8, ptr %17, i64 32
  store i32 %16, ptr %31, align 8, !tbaa !36
  %32 = getelementptr inbounds nuw i8, ptr %.021, i64 38
  %33 = load i8, ptr %32, align 2, !tbaa !50
  %34 = getelementptr inbounds nuw i8, ptr %17, i64 38
  store i8 %33, ptr %34, align 2, !tbaa !50
  %35 = getelementptr inbounds nuw i8, ptr %.021, i64 37
  %36 = load i8, ptr %35, align 1, !tbaa !51
  %37 = getelementptr inbounds nuw i8, ptr %17, i64 37
  store i8 %36, ptr %37, align 1, !tbaa !51
  %38 = load ptr, ptr %1, align 8, !tbaa !25
  %39 = tail call ptr %38(ptr noundef nonnull %1, ptr noundef nonnull %17, i32 noundef 1) #12
  %40 = load ptr, ptr %0, align 8, !tbaa !25
  %41 = tail call ptr %40(ptr noundef nonnull %0, ptr noundef nonnull %.021, i32 noundef 8) #12
  %.not = icmp eq ptr %41, null
  br i1 %.not, label %._crit_edge, label %8, !llvm.loop !52

._crit_edge:                                      ; preds = %agnewsym.exit, %4
  ret void
}